Certificate:
    Data:
        Version: 3 (0x2)
        Serial Number: 2 (0x2)
        Signature Algorithm: sha1WithRSAEncryption
        Issuer: C=US, O=Google, OU=Enterprise, CN=Enterprise Root CA
        Validity
            Not Before: Apr 25 22:07:15 2020 GMT
            Not After : Apr 25 22:07:15 2030 GMT
        Subject: C=US, O=Google, OU=Enterprise, CN=Enterprise Subordinate CA
        Subject Public Key Info:
            Public Key Algorithm: rsaEncryption
                RSA Public-Key: (2048 bit)
                Modulus:
                    00:d8:55:cc:c6:83:ee:72:79:8f:6d:e6:98:be:d0:
                    bb:9b:0a:8c:a9:2f:c3:44:6b:86:9a:4e:fc:7f:c7:
                    0b:2e:6b:5f:e2:a7:1f:43:04:b9:b7:95:24:10:05:
                    22:1d:a0:c6:4d:d9:24:f0:05:91:54:67:38:4a:1f:
                    e7:c3:19:6c:10:cc:3b:b6:19:25:5b:7c:e0:7b:c7:
                    14:ed:5f:a9:5a:31:a8:91:a6:22:2c:fa:9a:c9:5d:
                    c2:27:b5:69:60:f2:1b:5d:11:aa:79:74:2b:48:08:
                    77:87:9b:cf:98:59:f6:20:de:13:64:5d:84:e3:a1:
                    68:6f:cc:61:aa:36:1c:f4:20:06:aa:1f:0d:7a:f0:
                    b2:bf:23:6f:9d:bd:99:4f:34:1e:0b:68:e8:b9:14:
                    ad:96:d7:47:87:de:f2:9c:af:e2:6a:dc:b3:ca:8b:
                    74:fb:d0:6b:84:8f:fd:08:11:0b:4b:53:03:1b:17:
                    13:df:98:38:f2:91:09:cc:7a:f5:fe:4d:d6:77:3d:
                    95:33:4f:a9:29:22:01:86:22:4c:d6:de:10:d4:b0:
                    0b:84:fe:cb:29:2a:fa:13:1d:c7:d4:ec:da:04:45:
                    bc:82:92:28:2a:59:07:e8:8d:43:f6:53:ac:d6:b4:
                    92:25:4e:19:12:c5:6a:7e:df:b7:8f:7d:92:07:26:
                    4d:99
                Exponent: 65537 (0x10001)
        X509v3 extensions:
            X509v3 Key Usage: critical
                Certificate Sign, CRL Sign
            X509v3 Basic Constraints: critical
                CA:TRUE, pathlen:0
            X509v3 Subject Key Identifier: 
                BF:E1:1C:F0:22:48:8F:FC:3B:CF:5D:D9:ED:AE:88:70:21:DF:DD:86
            X509v3 Authority Key Identifier: 
                keyid:9A:54:D6:19:21:58:3A:46:B6:D4:AE:05:7E:80:70:F4:38:CF:28:0C

            Authority Information Access: 
                CA Issuers - URI:http://pki.esodemoapp2.com/ca/root-ca.cer

            X509v3 CRL Distribution Points: 

                Full Name:
                  URI:http://pki.esodemoapp2.com/ca/root-ca.crl

    Signature Algorithm: sha1WithRSAEncryption
         88:2b:b7:92:1b:17:fb:57:2f:f9:a4:a5:5d:0c:68:03:fe:c1:
         bf:a6:30:60:a8:fe:88:56:87:2f:2d:43:74:9d:4c:d3:f0:d3:
         24:39:8a:da:27:3f:8b:c9:25:32:e7:95:86:3d:e1:5e:01:17:
         11:0a:a7:85:c2:ac:fe:a3:50:5e:b5:da:8e:51:98:28:b9:fd:
         43:b9:7b:df:c9:7d:30:72:9d:58:fc:81:0f:70:59:f3:97:e5:
         39:6f:51:75:d2:23:8b:1a:de:65:95:4c:4c:77:a7:a8:d4:c4:
         b9:dd:2a:db:17:73:48:bd:03:ae:e9:aa:07:06:58:7a:d7:8a:
         a4:cd:cc:76:84:08:4b:23:0e:42:f4:cb:ca:ee:be:54:3f:5e:
         fd:8a:5b:f8:c7:b6:58:7d:6b:0c:ec:32:ef:86:01:bc:74:48:
         10:4c:30:8f:07:98:7a:71:22:88:33:5a:88:84:7c:e9:3e:4a:
         c6:70:6b:4a:2b:f1:5b:89:d8:f0:e0:e3:f6:e4:70:03:57:a8:
         bf:19:72:a4:8e:2a:ce:85:54:24:a2:3d:92:dd:18:e4:88:dc:
         bc:26:f2:68:6c:21:4c:18:94:a2:ea:6f:46:3b:c3:ab:50:0f:
         a8:f6:bf:49:29:89:0b:98:b1:16:0f:93:de:17:b8:42:9d:b1:
         90:63:e0:b0
-----BEGIN CERTIFICATE-----
MIIEDTCCAvWgAwIBAgIBAjANBgkqhkiG9w0BAQUFADBQMQswCQYDVQQGEwJVUzEP
MA0GA1UECgwGR29vZ2xlMRMwEQYDVQQLDApFbnRlcnByaXNlMRswGQYDVQQDDBJF
bnRlcnByaXNlIFJvb3QgQ0EwHhcNMjAwNDI1MjIwNzE1WhcNMzAwNDI1MjIwNzE1
WjBXMQswCQYDVQQGEwJVUzEPMA0GA1UECgwGR29vZ2xlMRMwEQYDVQQLDApFbnRl
cnByaXNlMSIwIAYDVQQDDBlFbnRlcnByaXNlIFN1Ym9yZGluYXRlIENBMIIBIjAN
BgkqhkiG9w0BAQEFAAOCAQ8AMIIBCgKCAQEA2FXMxoPucnmPbeaYvtC7mwqMqS/D
RGuGmk78f8cLLmtf4qcfQwS5t5UkEAUiHaDGTdkk8AWRVGc4Sh/nwxlsEMw7thkl
W3zge8cU7V+pWjGokaYiLPqayV3CJ7VpYPIbXRGqeXQrSAh3h5vPmFn2IN4TZF2E
46Fob8xhqjYc9CAGqh8NevCyvyNvnb2ZTzQeC2jouRStltdHh97ynK/iatyzyot0
+9BrhI/9CBELS1MDGxcT35g48pEJzHr1/k3Wdz2VM0+pKSIBhiJM1t4Q1LALhP7L
KSr6Ex3H1OzaBEW8gpIoKlkH6I1D9lOs1rSSJU4ZEsVqft+3j32SByZNmQIDAQAB
o4HqMIHnMA4GA1UdDwEB/wQEAwIBBjASBgNVHRMBAf8ECDAGAQH/AgEAMB0GA1Ud
DgQWBBS/4RzwIkiP/DvPXdntrohwId/dhjAfBgNVHSMEGDAWgBSaVNYZIVg6RrbU
rgV+gHD0OM8oDDBFBggrBgEFBQcBAQQ5MDcwNQYIKwYBBQUHMAKGKWh0dHA6Ly9w
a2kuZXNvZGVtb2FwcDIuY29tL2NhL3Jvb3QtY2EuY2VyMDoGA1UdHwQzMDEwL6At
oCuGKWh0dHA6Ly9wa2kuZXNvZGVtb2FwcDIuY29tL2NhL3Jvb3QtY2EuY3JsMA0G
CSqGSIb3DQEBBQUAA4IBAQCIK7eSGxf7Vy/5pKVdDGgD/sG/pjBgqP6IVocvLUN0
nUzT8NMkOYraJz+LySUy55WGPeFeARcRCqeFwqz+o1BetdqOUZgouf1DuXvfyX0w
cp1Y/IEPcFnzl+U5b1F10iOLGt5llUxMd6eo1MS53SrbF3NIvQOu6aoHBlh614qk
zcx2hAhLIw5C9MvK7r5UP179ilv4x7ZYfWsM7DLvhgG8dEgQTDCPB5h6cSKIM1qI
hHzpPkrGcGtKK/Fbidjw4OP25HADV6i/GXKkjirOhVQkoj2S3RjkiNy8JvJobCFM
GJSi6m9GO8OrUA+o9r9JKYkLmLEWD5PeF7hCnbGQY+Cw
-----END CERTIFICATE-----
